target datalayout = "e-m:e-p270:32:32-p271:32:32-p272:64:64-i64:64-i128:128-f80:128-n8:16:32:64-S128"
target triple = "x86_64-pc-linux-gnu"

%struct.lean_object = type { i32, i32 }

@l_ImportCompletion_isImportNameCompletionRequest___closed__2 = internal global ptr null, align 8
@l_ImportCompletion_isImportNameCompletionRequest___closed__4 = internal global ptr null, align 8

; Function Attrs: inlinehint nounwind uwtable
define internal zeroext i1 @lean_is_st(ptr noundef %0) #0 {
  %2 = alloca ptr, align 8
  store ptr %0, ptr %2, align 8, !tbaa !8
  %3 = load ptr, ptr %2, align 8, !tbaa !8
  %4 = getelementptr inbounds nuw %struct.lean_object, ptr %3, i32 0, i32 0
  %5 = load i32, ptr %4, align 4, !tbaa !15
  %6 = icmp sgt i32 %5, 0
  ret i1 %6
}

; Function Attrs: inlinehint nounwind uwtable
define internal ptr @lean_usize_to_nat(i64 noundef %0) #0 {
  %2 = alloca ptr, align 8
  %3 = alloca i64, align 8
  store i64 %0, ptr %3, align 8, !tbaa !4
  %4 = load i64, ptr %3, align 8, !tbaa !4
  %5 = icmp ule i64 %4, 9223372036854775807
  %6 = zext i1 %5 to i32
  %7 = sext i32 %6 to i64
  %8 = call i64 @llvm.expect.i64(i64 %7, i64 1)
  %9 = icmp ne i64 %8, 0
  br i1 %9, label %10, label %13

10:                                               ; preds = %1
  %11 = load i64, ptr %3, align 8, !tbaa !4
  %12 = call ptr @lean_box(i64 noundef %11)
  store ptr %12, ptr %2, align 8
  br label %16

13:                                               ; preds = %1
  %14 = load i64, ptr %3, align 8, !tbaa !4
  %15 = call ptr @lean_big_usize_to_nat(i64 noundef %14)
  store ptr %15, ptr %2, align 8
  br label %16

16:                                               ; preds = %13, %10
  %17 = load ptr, ptr %2, align 8
  ret ptr %17
}

; Function Attrs: alwaysinline nounwind uwtable
define internal void @lean_dec_ref(ptr noundef %0) #1 {
  %2 = alloca ptr, align 8
  store ptr %0, ptr %2, align 8, !tbaa !8
  %3 = load ptr, ptr %2, align 8, !tbaa !8
  %4 = getelementptr inbounds nuw %struct.lean_object, ptr %3, i32 0, i32 0
  %5 = load i32, ptr %4, align 4, !tbaa !15
  %6 = icmp sgt i32 %5, 1
  %7 = zext i1 %6 to i32
  %8 = sext i32 %7 to i64
  %9 = call i64 @llvm.expect.i64(i64 %8, i64 1)
  %10 = icmp ne i64 %9, 0
  br i1 %10, label %11, label %16

11:                                               ; preds = %1
  %12 = load ptr, ptr %2, align 8, !tbaa !8
  %13 = getelementptr inbounds nuw %struct.lean_object, ptr %12, i32 0, i32 0
  %14 = load i32, ptr %13, align 4, !tbaa !15
  %15 = add i32 %14, -1
  store i32 %15, ptr %13, align 4, !tbaa !15
  br label %24

16:                                               ; preds = %1
  %17 = load ptr, ptr %2, align 8, !tbaa !8
  %18 = getelementptr inbounds nuw %struct.lean_object, ptr %17, i32 0, i32 0
  %19 = load i32, ptr %18, align 4, !tbaa !15
  %20 = icmp ne i32 %19, 0
  br i1 %20, label %21, label %23

21:                                               ; preds = %16
  %22 = load ptr, ptr %2, align 8, !tbaa !8
  call void @lean_dec_ref_cold(ptr noundef %22)
  br label %23

23:                                               ; preds = %21, %16
  br label %24

24:                                               ; preds = %23, %11
  ret void
}

; Function Attrs: inlinehint nounwind uwtable
define internal void @lean_inc_ref(ptr noundef %0) #0 {
  %2 = alloca ptr, align 8
  store ptr %0, ptr %2, align 8, !tbaa !8
  %3 = load ptr, ptr %2, align 8, !tbaa !8
  %4 = call zeroext i1 @lean_is_st(ptr noundef %3)
  %5 = zext i1 %4 to i64
  %6 = call i64 @llvm.expect.i64(i64 %5, i64 1)
  %7 = icmp ne i64 %6, 0
  br i1 %7, label %8, label %13

8:                                                ; preds = %1
  %9 = load ptr, ptr %2, align 8, !tbaa !8
  %10 = getelementptr inbounds nuw %struct.lean_object, ptr %9, i32 0, i32 0
  %11 = load i32, ptr %10, align 4, !tbaa !15
  %12 = add i32 %11, 1
  store i32 %12, ptr %10, align 4, !tbaa !15
  br label %21

13:                                               ; preds = %1
  %14 = load ptr, ptr %2, align 8, !tbaa !8
  %15 = getelementptr inbounds nuw %struct.lean_object, ptr %14, i32 0, i32 0
  %16 = load i32, ptr %15, align 4, !tbaa !15
  %17 = icmp ne i32 %16, 0
  br i1 %17, label %18, label %20

18:                                               ; preds = %13
  %19 = load ptr, ptr %2, align 8, !tbaa !8
  call void @lean_inc_ref_cold(ptr noundef %19)
  br label %20

20:                                               ; preds = %18, %13
  br label %21

21:                                               ; preds = %20, %8
  ret void
}

; Function Attrs: alwaysinline nounwind uwtable
define internal zeroext i1 @lean_is_scalar(ptr noundef %0) #1 {
  %2 = alloca ptr, align 8
  store ptr %0, ptr %2, align 8, !tbaa !8
  %3 = load ptr, ptr %2, align 8, !tbaa !8
  %4 = ptrtoint ptr %3 to i64
  %5 = and i64 %4, 1
  %6 = icmp eq i64 %5, 1
  ret i1 %6
}

; Function Attrs: inlinehint nounwind uwtable
define internal ptr @lean_box(i64 noundef %0) #0 {
  %2 = alloca i64, align 8
  store i64 %0, ptr %2, align 8, !tbaa !4
  %3 = load i64, ptr %2, align 8, !tbaa !4
  %4 = shl i64 %3, 1
  %5 = or i64 %4, 1
  %6 = inttoptr i64 %5 to ptr
  ret ptr %6
}

; Function Attrs: inlinehint nounwind uwtable
define internal ptr @lean_unsigned_to_nat(i32 noundef %0) #0 {
  %2 = alloca i32, align 4
  store i32 %0, ptr %2, align 4, !tbaa !10
  %3 = load i32, ptr %2, align 4, !tbaa !10
  %4 = zext i32 %3 to i64
  %5 = call ptr @lean_usize_to_nat(i64 noundef %4)
  ret ptr %5
}

; Function Attrs: alwaysinline nounwind uwtable
define internal void @lean_dec(ptr noundef %0) #1 {
  %2 = alloca ptr, align 8
  store ptr %0, ptr %2, align 8, !tbaa !8
  %3 = load ptr, ptr %2, align 8, !tbaa !8
  %4 = call zeroext i1 @lean_is_scalar(ptr noundef %3)
  br i1 %4, label %7, label %5

5:                                                ; preds = %1
  %6 = load ptr, ptr %2, align 8, !tbaa !8
  call void @lean_dec_ref(ptr noundef %6)
  br label %7

7:                                                ; preds = %5, %1
  ret void
}

; Function Attrs: alwaysinline nounwind uwtable
define internal void @lean_inc(ptr noundef %0) #1 {
  %2 = alloca ptr, align 8
  store ptr %0, ptr %2, align 8, !tbaa !8
  %3 = load ptr, ptr %2, align 8, !tbaa !8
  %4 = call zeroext i1 @lean_is_scalar(ptr noundef %3)
  br i1 %4, label %7, label %5

5:                                                ; preds = %1
  %6 = load ptr, ptr %2, align 8, !tbaa !8
  call void @lean_inc_ref(ptr noundef %6)
  br label %7

7:                                                ; preds = %5, %1
  ret void
}

; Function Attrs: nounwind uwtable
define zeroext i8 @l_ImportCompletion_isImportCmdCompletionRequest(ptr noundef %0, ptr noundef %1) #2 {
  %3 = alloca i8, align 1
  %4 = alloca ptr, align 8
  %5 = alloca ptr, align 8
  %6 = alloca ptr, align 8
  %7 = alloca i8, align 1
  %8 = alloca i8, align 1
  %9 = alloca i32, align 4
  %10 = alloca ptr, align 8
  %11 = alloca ptr, align 8
  %12 = alloca i8, align 1
  %13 = alloca ptr, align 8
  %14 = alloca i8, align 1
  %15 = alloca i8, align 1
  %16 = alloca ptr, align 8
  %17 = alloca ptr, align 8
  %18 = alloca i8, align 1
  %19 = alloca i8, align 1
  %20 = alloca ptr, align 8
  %21 = alloca i8, align 1
  %22 = alloca ptr, align 8
  %23 = alloca i8, align 1
  store ptr %0, ptr %4, align 8, !tbaa !8
  store ptr %1, ptr %5, align 8, !tbaa !8
  br label %24

24:                                               ; preds = %2
  call void @llvm.lifetime.start.p0(i64 8, ptr %6) #7
  call void @llvm.lifetime.start.p0(i64 1, ptr %7) #7
  %25 = load ptr, ptr @l_ImportCompletion_isImportNameCompletionRequest___closed__2, align 8, !tbaa !8
  store ptr %25, ptr %6, align 8, !tbaa !8
  %26 = load ptr, ptr %4, align 8, !tbaa !8
  call void @lean_inc(ptr noundef %26)
  %27 = load ptr, ptr %4, align 8, !tbaa !8
  %28 = load ptr, ptr %6, align 8, !tbaa !8
  %29 = call zeroext i8 @l_Lean_Syntax_isOfKind(ptr noundef %27, ptr noundef %28)
  store i8 %29, ptr %7, align 1, !tbaa !14
  %30 = load i8, ptr %7, align 1, !tbaa !14
  %31 = zext i8 %30 to i32
  %32 = icmp eq i32 %31, 0
  br i1 %32, label %33, label %36

33:                                               ; preds = %24
  call void @llvm.lifetime.start.p0(i64 1, ptr %8) #7
  %34 = load ptr, ptr %4, align 8, !tbaa !8
  call void @lean_dec(ptr noundef %34)
  store i8 0, ptr %8, align 1, !tbaa !14
  %35 = load i8, ptr %8, align 1, !tbaa !14
  store i8 %35, ptr %3, align 1
  store i32 1, ptr %9, align 4
  call void @llvm.lifetime.end.p0(i64 1, ptr %8) #7
  br label %94

36:                                               ; preds = %24
  call void @llvm.lifetime.start.p0(i64 8, ptr %10) #7
  call void @llvm.lifetime.start.p0(i64 8, ptr %11) #7
  call void @llvm.lifetime.start.p0(i64 1, ptr %12) #7
  %37 = call ptr @lean_unsigned_to_nat(i32 noundef 0)
  store ptr %37, ptr %10, align 8, !tbaa !8
  %38 = load ptr, ptr %4, align 8, !tbaa !8
  %39 = load ptr, ptr %10, align 8, !tbaa !8
  %40 = call ptr @l_Lean_Syntax_getArg(ptr noundef %38, ptr noundef %39)
  store ptr %40, ptr %11, align 8, !tbaa !8
  %41 = load ptr, ptr %11, align 8, !tbaa !8
  %42 = call zeroext i8 @l_Lean_Syntax_isNone(ptr noundef %41)
  store i8 %42, ptr %12, align 1, !tbaa !14
  %43 = load i8, ptr %12, align 1, !tbaa !14
  %44 = zext i8 %43 to i32
  %45 = icmp eq i32 %44, 0
  br i1 %45, label %46, label %84

46:                                               ; preds = %36
  call void @llvm.lifetime.start.p0(i64 8, ptr %13) #7
  call void @llvm.lifetime.start.p0(i64 1, ptr %14) #7
  %47 = call ptr @lean_unsigned_to_nat(i32 noundef 1)
  store ptr %47, ptr %13, align 8, !tbaa !8
  %48 = load ptr, ptr %11, align 8, !tbaa !8
  call void @lean_inc(ptr noundef %48)
  %49 = load ptr, ptr %11, align 8, !tbaa !8
  %50 = load ptr, ptr %13, align 8, !tbaa !8
  %51 = call zeroext i8 @l_Lean_Syntax_matchesNull(ptr noundef %49, ptr noundef %50)
  store i8 %51, ptr %14, align 1, !tbaa !14
  %52 = load i8, ptr %14, align 1, !tbaa !14
  %53 = zext i8 %52 to i32
  %54 = icmp eq i32 %53, 0
  br i1 %54, label %55, label %59

55:                                               ; preds = %46
  call void @llvm.lifetime.start.p0(i64 1, ptr %15) #7
  %56 = load ptr, ptr %11, align 8, !tbaa !8
  call void @lean_dec(ptr noundef %56)
  %57 = load ptr, ptr %4, align 8, !tbaa !8
  call void @lean_dec(ptr noundef %57)
  store i8 0, ptr %15, align 1, !tbaa !14
  %58 = load i8, ptr %15, align 1, !tbaa !14
  store i8 %58, ptr %3, align 1
  store i32 1, ptr %9, align 4
  call void @llvm.lifetime.end.p0(i64 1, ptr %15) #7
  br label %83

59:                                               ; preds = %46
  call void @llvm.lifetime.start.p0(i64 8, ptr %16) #7
  call void @llvm.lifetime.start.p0(i64 8, ptr %17) #7
  call void @llvm.lifetime.start.p0(i64 1, ptr %18) #7
  %60 = load ptr, ptr %11, align 8, !tbaa !8
  %61 = load ptr, ptr %10, align 8, !tbaa !8
  %62 = call ptr @l_Lean_Syntax_getArg(ptr noundef %60, ptr noundef %61)
  store ptr %62, ptr %16, align 8, !tbaa !8
  %63 = load ptr, ptr %11, align 8, !tbaa !8
  call void @lean_dec(ptr noundef %63)
  %64 = load ptr, ptr @l_ImportCompletion_isImportNameCompletionRequest___closed__4, align 8, !tbaa !8
  store ptr %64, ptr %17, align 8, !tbaa !8
  %65 = load ptr, ptr %16, align 8, !tbaa !8
  %66 = load ptr, ptr %17, align 8, !tbaa !8
  %67 = call zeroext i8 @l_Lean_Syntax_isOfKind(ptr noundef %65, ptr noundef %66)
  store i8 %67, ptr %18, align 1, !tbaa !14
  %68 = load i8, ptr %18, align 1, !tbaa !14
  %69 = zext i8 %68 to i32
  %70 = icmp eq i32 %69, 0
  br i1 %70, label %71, label %74

71:                                               ; preds = %59
  call void @llvm.lifetime.start.p0(i64 1, ptr %19) #7
  %72 = load ptr, ptr %4, align 8, !tbaa !8
  call void @lean_dec(ptr noundef %72)
  store i8 0, ptr %19, align 1, !tbaa !14
  %73 = load i8, ptr %19, align 1, !tbaa !14
  store i8 %73, ptr %3, align 1
  store i32 1, ptr %9, align 4
  call void @llvm.lifetime.end.p0(i64 1, ptr %19) #7
  br label %82

74:                                               ; preds = %59
  call void @llvm.lifetime.start.p0(i64 8, ptr %20) #7
  call void @llvm.lifetime.start.p0(i64 1, ptr %21) #7
  %75 = call ptr @lean_box(i64 noundef 0)
  store ptr %75, ptr %20, align 8, !tbaa !8
  %76 = load ptr, ptr %4, align 8, !tbaa !8
  %77 = load ptr, ptr %5, align 8, !tbaa !8
  %78 = load ptr, ptr %20, align 8, !tbaa !8
  %79 = call zeroext i8 @l_ImportCompletion_isImportCmdCompletionRequest___lambda__2(ptr noundef %76, ptr noundef %77, ptr noundef %78)
  store i8 %79, ptr %21, align 1, !tbaa !14
  %80 = load ptr, ptr %4, align 8, !tbaa !8
  call void @lean_dec(ptr noundef %80)
  %81 = load i8, ptr %21, align 1, !tbaa !14
  store i8 %81, ptr %3, align 1
  store i32 1, ptr %9, align 4
  call void @llvm.lifetime.end.p0(i64 1, ptr %21) #7
  call void @llvm.lifetime.end.p0(i64 8, ptr %20) #7
  br label %82

82:                                               ; preds = %74, %71
  call void @llvm.lifetime.end.p0(i64 1, ptr %18) #7
  call void @llvm.lifetime.end.p0(i64 8, ptr %17) #7
  call void @llvm.lifetime.end.p0(i64 8, ptr %16) #7
  br label %83

83:                                               ; preds = %82, %55
  call void @llvm.lifetime.end.p0(i64 1, ptr %14) #7
  call void @llvm.lifetime.end.p0(i64 8, ptr %13) #7
  br label %93

84:                                               ; preds = %36
  call void @llvm.lifetime.start.p0(i64 8, ptr %22) #7
  call void @llvm.lifetime.start.p0(i64 1, ptr %23) #7
  %85 = load ptr, ptr %11, align 8, !tbaa !8
  call void @lean_dec(ptr noundef %85)
  %86 = call ptr @lean_box(i64 noundef 0)
  store ptr %86, ptr %22, align 8, !tbaa !8
  %87 = load ptr, ptr %4, align 8, !tbaa !8
  %88 = load ptr, ptr %5, align 8, !tbaa !8
  %89 = load ptr, ptr %22, align 8, !tbaa !8
  %90 = call zeroext i8 @l_ImportCompletion_isImportCmdCompletionRequest___lambda__2(ptr noundef %87, ptr noundef %88, ptr noundef %89)
  store i8 %90, ptr %23, align 1, !tbaa !14
  %91 = load ptr, ptr %4, align 8, !tbaa !8
  call void @lean_dec(ptr noundef %91)
  %92 = load i8, ptr %23, align 1, !tbaa !14
  store i8 %92, ptr %3, align 1
  store i32 1, ptr %9, align 4
  call void @llvm.lifetime.end.p0(i64 1, ptr %23) #7
  call void @llvm.lifetime.end.p0(i64 8, ptr %22) #7
  br label %93

93:                                               ; preds = %84, %83
  call void @llvm.lifetime.end.p0(i64 1, ptr %12) #7
  call void @llvm.lifetime.end.p0(i64 8, ptr %11) #7
  call void @llvm.lifetime.end.p0(i64 8, ptr %10) #7
  br label %94

94:                                               ; preds = %93, %33
  call void @llvm.lifetime.end.p0(i64 1, ptr %7) #7
  call void @llvm.lifetime.end.p0(i64 8, ptr %6) #7
  %95 = load i8, ptr %3, align 1
  ret i8 %95
}