; Function Attrs: nounwind uwtable
define zeroext range(i8 0, 2) i8 @l_ImportCompletion_isImportCmdCompletionRequest(ptr noundef %0, ptr noundef %1) local_unnamed_addr #0 {
  %3 = load ptr, ptr @l_ImportCompletion_isImportNameCompletionRequest___closed__2, align 8, !tbaa !4
  %4 = ptrtoint ptr %0 to i64
  %5 = and i64 %4, 1
  %.not = icmp eq i64 %5, 0
  br i1 %.not, label %6, label %lean_inc.exit36.thread

6:                                                ; preds = %2
  %.val.i = load i32, ptr %0, align 4, !tbaa !8
  %7 = icmp sgt i32 %.val.i, 0
  br i1 %7, label %8, label %10, !prof !11

8:                                                ; preds = %6
  %9 = add nuw i32 %.val.i, 1
  store i32 %9, ptr %0, align 4, !tbaa !8
  br label %lean_inc.exit36

10:                                               ; preds = %6
  %.not.i58 = icmp eq i32 %.val.i, 0
  br i1 %.not.i58, label %lean_inc.exit36, label %11

11:                                               ; preds = %10
  tail call void @lean_inc_ref_cold(ptr noundef nonnull %0) #5
  br label %lean_inc.exit36

lean_inc.exit36:                                  ; preds = %11, %10, %8
  %12 = tail call zeroext i8 @l_Lean_Syntax_isOfKind(ptr noundef nonnull %0, ptr noundef %3) #5
  %13 = icmp eq i8 %12, 0
  br i1 %13, label %16, label %23

lean_inc.exit36.thread:                           ; preds = %2
  %14 = tail call zeroext i8 @l_Lean_Syntax_isOfKind(ptr noundef %0, ptr noundef %3) #5
  %15 = icmp eq i8 %14, 0
  br i1 %15, label %lean_dec.exit43, label %23

16:                                               ; preds = %lean_inc.exit36
  %17 = load i32, ptr %0, align 4, !tbaa !8
  %18 = icmp sgt i32 %17, 1
  br i1 %18, label %19, label %21, !prof !11

19:                                               ; preds = %16
  %20 = add nsw i32 %17, -1
  store i32 %20, ptr %0, align 4, !tbaa !8
  br label %lean_dec.exit43

21:                                               ; preds = %16
  %.not.i = icmp eq i32 %17, 0
  br i1 %.not.i, label %lean_dec.exit43, label %22

22:                                               ; preds = %21
  tail call void @lean_dec_ref_cold(ptr noundef nonnull %0) #5
  br label %lean_dec.exit43

23:                                               ; preds = %lean_inc.exit36.thread, %lean_inc.exit36
  %24 = tail call ptr @l_Lean_Syntax_getArg(ptr noundef %0, ptr noundef nonnull inttoptr (i64 1 to ptr)) #5
  %25 = tail call zeroext i8 @l_Lean_Syntax_isNone(ptr noundef %24) #5
  %26 = icmp eq i8 %25, 0
  %27 = ptrtoint ptr %24 to i64
  %28 = and i64 %27, 1
  %.not65 = icmp eq i64 %28, 0
  br i1 %26, label %29, label %84

29:                                               ; preds = %23
  br i1 %.not65, label %30, label %lean_inc.exit.thread

30:                                               ; preds = %29
  %.val.i59 = load i32, ptr %24, align 4, !tbaa !8
  %31 = icmp sgt i32 %.val.i59, 0
  br i1 %31, label %32, label %34, !prof !11

32:                                               ; preds = %30
  %33 = add nuw i32 %.val.i59, 1
  store i32 %33, ptr %24, align 4, !tbaa !8
  br label %lean_inc.exit

34:                                               ; preds = %30
  %.not.i60 = icmp eq i32 %.val.i59, 0
  br i1 %.not.i60, label %lean_inc.exit, label %35

35:                                               ; preds = %34
  tail call void @lean_inc_ref_cold(ptr noundef nonnull %24) #5
  br label %lean_inc.exit

lean_inc.exit:                                    ; preds = %35, %34, %32
  %36 = tail call zeroext i8 @l_Lean_Syntax_matchesNull(ptr noundef nonnull %24, ptr noundef nonnull inttoptr (i64 3 to ptr)) #5
  %37 = icmp eq i8 %36, 0
  br i1 %37, label %41, label %55

lean_inc.exit.thread:                             ; preds = %29
  %38 = tail call zeroext i8 @l_Lean_Syntax_matchesNull(ptr noundef %24, ptr noundef nonnull inttoptr (i64 3 to ptr)) #5
  %39 = icmp eq i8 %38, 0
  br i1 %39, label %lean_dec.exit42, label %.thread63

.thread63:                                        ; preds = %lean_inc.exit.thread
  %40 = tail call ptr @l_Lean_Syntax_getArg(ptr noundef %24, ptr noundef nonnull inttoptr (i64 1 to ptr)) #5
  br label %lean_dec.exit40

41:                                               ; preds = %lean_inc.exit
  %42 = load i32, ptr %24, align 4, !tbaa !8
  %43 = icmp sgt i32 %42, 1
  br i1 %43, label %44, label %46, !prof !11

44:                                               ; preds = %41
  %45 = add nsw i32 %42, -1
  store i32 %45, ptr %24, align 4, !tbaa !8
  br label %lean_dec.exit42

46:                                               ; preds = %41
  %.not.i44 = icmp eq i32 %42, 0
  br i1 %.not.i44, label %lean_dec.exit42, label %47

47:                                               ; preds = %46
  tail call void @lean_dec_ref_cold(ptr noundef nonnull %24) #5
  br label %lean_dec.exit42

lean_dec.exit42:                                  ; preds = %lean_inc.exit.thread, %47, %46, %44
  br i1 %.not, label %48, label %lean_dec.exit43

48:                                               ; preds = %lean_dec.exit42
  %49 = load i32, ptr %0, align 4, !tbaa !8
  %50 = icmp sgt i32 %49, 1
  br i1 %50, label %51, label %53, !prof !11

51:                                               ; preds = %48
  %52 = add nsw i32 %49, -1
  store i32 %52, ptr %0, align 4, !tbaa !8
  br label %lean_dec.exit43

53:                                               ; preds = %48
  %.not.i46 = icmp eq i32 %49, 0
  br i1 %.not.i46, label %lean_dec.exit43, label %54

54:                                               ; preds = %53
  tail call void @lean_dec_ref_cold(ptr noundef nonnull %0) #5
  br label %lean_dec.exit43

55:                                               ; preds = %lean_inc.exit
  %56 = tail call ptr @l_Lean_Syntax_getArg(ptr noundef nonnull %24, ptr noundef nonnull inttoptr (i64 1 to ptr)) #5
  %57 = load i32, ptr %24, align 4, !tbaa !8
  %58 = icmp sgt i32 %57, 1
  br i1 %58, label %59, label %61, !prof !11

59:                                               ; preds = %55
  %60 = add nsw i32 %57, -1
  store i32 %60, ptr %24, align 4, !tbaa !8
  br label %lean_dec.exit40

61:                                               ; preds = %55
  %.not.i48 = icmp eq i32 %57, 0
  br i1 %.not.i48, label %lean_dec.exit40, label %62

62:                                               ; preds = %61
  tail call void @lean_dec_ref_cold(ptr noundef nonnull %24) #5
  br label %lean_dec.exit40

lean_dec.exit40:                                  ; preds = %62, %61, %59, %.thread63
  %63 = phi ptr [ %40, %.thread63 ], [ %56, %59 ], [ %56, %61 ], [ %56, %62 ]
  %64 = load ptr, ptr @l_ImportCompletion_isImportNameCompletionRequest___closed__4, align 8, !tbaa !4
  %65 = tail call zeroext i8 @l_Lean_Syntax_isOfKind(ptr noundef %63, ptr noundef %64) #5
  %66 = icmp eq i8 %65, 0
  br i1 %66, label %67, label %75

67:                                               ; preds = %lean_dec.exit40
  br i1 %.not, label %68, label %lean_dec.exit43

68:                                               ; preds = %67
  %69 = load i32, ptr %0, align 4, !tbaa !8
  %70 = icmp sgt i32 %69, 1
  br i1 %70, label %71, label %73, !prof !11

71:                                               ; preds = %68
  %72 = add nsw i32 %69, -1
  store i32 %72, ptr %0, align 4, !tbaa !8
  br label %lean_dec.exit43

73:                                               ; preds = %68
  %.not.i50 = icmp eq i32 %69, 0
  br i1 %.not.i50, label %lean_dec.exit43, label %74

74:                                               ; preds = %73
  tail call void @lean_dec_ref_cold(ptr noundef nonnull %0) #5
  br label %lean_dec.exit43

75:                                               ; preds = %lean_dec.exit40
  %76 = tail call zeroext i8 @l_ImportCompletion_isImportCmdCompletionRequest___lambda__2(ptr noundef %0, ptr noundef %1, ptr nonnull poison)
  br i1 %.not, label %77, label %lean_dec.exit43

77:                                               ; preds = %75
  %78 = load i32, ptr %0, align 4, !tbaa !8
  %79 = icmp sgt i32 %78, 1
  br i1 %79, label %80, label %82, !prof !11

80:                                               ; preds = %77
  %81 = add nsw i32 %78, -1
  store i32 %81, ptr %0, align 4, !tbaa !8
  br label %lean_dec.exit43

82:                                               ; preds = %77
  %.not.i52 = icmp eq i32 %78, 0
  br i1 %.not.i52, label %lean_dec.exit43, label %83

83:                                               ; preds = %82
  tail call void @lean_dec_ref_cold(ptr noundef nonnull %0) #5
  br label %lean_dec.exit43

84:                                               ; preds = %23
  br i1 %.not65, label %85, label %lean_dec.exit37

85:                                               ; preds = %84
  %86 = load i32, ptr %24, align 4, !tbaa !8
  %87 = icmp sgt i32 %86, 1
  br i1 %87, label %88, label %90, !prof !11

88:                                               ; preds = %85
  %89 = add nsw i32 %86, -1
  store i32 %89, ptr %24, align 4, !tbaa !8
  br label %lean_dec.exit37

90:                                               ; preds = %85
  %.not.i54 = icmp eq i32 %86, 0
  br i1 %.not.i54, label %lean_dec.exit37, label %91

91:                                               ; preds = %90
  tail call void @lean_dec_ref_cold(ptr noundef nonnull %24) #5
  br label %lean_dec.exit37

lean_dec.exit37:                                  ; preds = %91, %90, %88, %84
  %92 = tail call zeroext i8 @l_ImportCompletion_isImportCmdCompletionRequest___lambda__2(ptr noundef %0, ptr noundef %1, ptr nonnull poison)
  br i1 %.not, label %93, label %lean_dec.exit43

93:                                               ; preds = %lean_dec.exit37
  %94 = load i32, ptr %0, align 4, !tbaa !8
  %95 = icmp sgt i32 %94, 1
  br i1 %95, label %96, label %98, !prof !11

96:                                               ; preds = %93
  %97 = add nsw i32 %94, -1
  store i32 %97, ptr %0, align 4, !tbaa !8
  br label %lean_dec.exit43

98:                                               ; preds = %93
  %.not.i56 = icmp eq i32 %94, 0
  br i1 %.not.i56, label %lean_dec.exit43, label %99

99:                                               ; preds = %98
  tail call void @lean_dec_ref_cold(ptr noundef nonnull %0) #5
  br label %lean_dec.exit43

lean_dec.exit43:                                  ; preds = %lean_inc.exit36.thread, %lean_dec.exit37, %96, %98, %99, %75, %80, %82, %83, %67, %71, %73, %74, %lean_dec.exit42, %51, %53, %54, %19, %21, %22
  %.0 = phi i8 [ 0, %22 ], [ 0, %21 ], [ 0, %19 ], [ 0, %54 ], [ 0, %53 ], [ 0, %51 ], [ 0, %lean_dec.exit42 ], [ 0, %74 ], [ 0, %73 ], [ 0, %71 ], [ 0, %67 ], [ %76, %83 ], [ %76, %82 ], [ %76, %80 ], [ %76, %75 ], [ %92, %99 ], [ %92, %98 ], [ %92, %96 ], [ %92, %lean_dec.exit37 ], [ 0, %lean_inc.exit36.thread ]
  ret i8 %.0
}